
../file/bin/test_stm32f051r8.elf:     file format elf32-littlearm


Disassembly of section .isr_vector:

08000000 <ArrayInterrapt>:
 8000000:	20001fff 	strdcs	r1, [r0], -pc	; <UNPREDICTABLE>
 8000004:	08000149 	stmdaeq	r0, {r0, r3, r6, r8}
 8000008:	080000c9 	stmdaeq	r0, {r0, r3, r6, r7}
 800000c:	080000d1 	stmdaeq	r0, {r0, r4, r6, r7}
	...
 800002c:	080000c9 	stmdaeq	r0, {r0, r3, r6, r7}
	...
 8000038:	0800037d 	stmdaeq	r0, {r0, r2, r3, r4, r5, r6, r8, r9}
 800003c:	080006ad 	stmdaeq	r0, {r0, r2, r3, r5, r7, r9, sl}
 8000040:	080000c9 	stmdaeq	r0, {r0, r3, r6, r7}
 8000044:	080000c9 	stmdaeq	r0, {r0, r3, r6, r7}
 8000048:	080000c9 	stmdaeq	r0, {r0, r3, r6, r7}
 800004c:	080000c9 	stmdaeq	r0, {r0, r3, r6, r7}
 8000050:	080000c9 	stmdaeq	r0, {r0, r3, r6, r7}
 8000054:	080000c9 	stmdaeq	r0, {r0, r3, r6, r7}
 8000058:	080000c9 	stmdaeq	r0, {r0, r3, r6, r7}
 800005c:	080000c9 	stmdaeq	r0, {r0, r3, r6, r7}
 8000060:	080000c9 	stmdaeq	r0, {r0, r3, r6, r7}
 8000064:	080000c9 	stmdaeq	r0, {r0, r3, r6, r7}
 8000068:	080000c9 	stmdaeq	r0, {r0, r3, r6, r7}
 800006c:	080000c9 	stmdaeq	r0, {r0, r3, r6, r7}
 8000070:	080000c9 	stmdaeq	r0, {r0, r3, r6, r7}
 8000074:	080000c9 	stmdaeq	r0, {r0, r3, r6, r7}
 8000078:	080000c9 	stmdaeq	r0, {r0, r3, r6, r7}
 800007c:	080000c9 	stmdaeq	r0, {r0, r3, r6, r7}
 8000080:	080000c9 	stmdaeq	r0, {r0, r3, r6, r7}
 8000084:	080000c9 	stmdaeq	r0, {r0, r3, r6, r7}
 8000088:	00000000 	andeq	r0, r0, r0
 800008c:	080000c9 	stmdaeq	r0, {r0, r3, r6, r7}
 8000090:	080000c9 	stmdaeq	r0, {r0, r3, r6, r7}
 8000094:	080000c9 	stmdaeq	r0, {r0, r3, r6, r7}
 8000098:	080000c9 	stmdaeq	r0, {r0, r3, r6, r7}
 800009c:	080000c9 	stmdaeq	r0, {r0, r3, r6, r7}
 80000a0:	080000c9 	stmdaeq	r0, {r0, r3, r6, r7}
 80000a4:	080000c9 	stmdaeq	r0, {r0, r3, r6, r7}
 80000a8:	080000c9 	stmdaeq	r0, {r0, r3, r6, r7}
 80000ac:	080000c9 	stmdaeq	r0, {r0, r3, r6, r7}
 80000b0:	080000c9 	stmdaeq	r0, {r0, r3, r6, r7}
 80000b4:	00000000 	andeq	r0, r0, r0
 80000b8:	080000c9 	stmdaeq	r0, {r0, r3, r6, r7}
 80000bc:	00000000 	andeq	r0, r0, r0
 80000c0:	080000c9 	stmdaeq	r0, {r0, r3, r6, r7}

080000c4 <_end_isr_vector>:
 80000c4:	ffffffff 			; <UNDEFINED> instruction: 0xffffffff

080000c8 <loop>:
 80000c8:	b580      	push	{r7, lr}
 80000ca:	af00      	add	r7, sp, #0
 80000cc:	46c0      	nop			; (mov r8, r8)
 80000ce:	e7fd      	b.n	80000cc <loop+0x4>

Disassembly of section .text:

080000d0 <HardFault_Handler>:
 80000d0:	b580      	push	{r7, lr}
 80000d2:	af00      	add	r7, sp, #0
 80000d4:	4905      	ldr	r1, [pc, #20]	; (80000ec <HardFault_Handler+0x1c>)
 80000d6:	4b05      	ldr	r3, [pc, #20]	; (80000ec <HardFault_Handler+0x1c>)
 80000d8:	8a9b      	ldrh	r3, [r3, #20]
 80000da:	b29b      	uxth	r3, r3
 80000dc:	2280      	movs	r2, #128	; 0x80
 80000de:	0092      	lsls	r2, r2, #2
 80000e0:	4313      	orrs	r3, r2
 80000e2:	b29b      	uxth	r3, r3
 80000e4:	828b      	strh	r3, [r1, #20]
 80000e6:	46c0      	nop			; (mov r8, r8)
 80000e8:	e7f4      	b.n	80000d4 <HardFault_Handler+0x4>
 80000ea:	46c0      	nop			; (mov r8, r8)
 80000ec:	48000800 	stmdami	r0, {fp}

080000f0 <ro_data_init>:
 80000f0:	b580      	push	{r7, lr}
 80000f2:	b084      	sub	sp, #16
 80000f4:	af00      	add	r7, sp, #0
 80000f6:	60f8      	str	r0, [r7, #12]
 80000f8:	60b9      	str	r1, [r7, #8]
 80000fa:	607a      	str	r2, [r7, #4]
 80000fc:	e007      	b.n	800010e <ro_data_init+0x1e>
 80000fe:	68bb      	ldr	r3, [r7, #8]
 8000100:	1c5a      	adds	r2, r3, #1
 8000102:	60ba      	str	r2, [r7, #8]
 8000104:	68fa      	ldr	r2, [r7, #12]
 8000106:	1c51      	adds	r1, r2, #1
 8000108:	60f9      	str	r1, [r7, #12]
 800010a:	7812      	ldrb	r2, [r2, #0]
 800010c:	701a      	strb	r2, [r3, #0]
 800010e:	68ba      	ldr	r2, [r7, #8]
 8000110:	687b      	ldr	r3, [r7, #4]
 8000112:	429a      	cmp	r2, r3
 8000114:	d1f3      	bne.n	80000fe <ro_data_init+0xe>
 8000116:	46bd      	mov	sp, r7
 8000118:	b004      	add	sp, #16
 800011a:	bd80      	pop	{r7, pc}

0800011c <bss_init>:
 800011c:	b580      	push	{r7, lr}
 800011e:	b084      	sub	sp, #16
 8000120:	af00      	add	r7, sp, #0
 8000122:	6078      	str	r0, [r7, #4]
 8000124:	6039      	str	r1, [r7, #0]
 8000126:	2300      	movs	r3, #0
 8000128:	60fb      	str	r3, [r7, #12]
 800012a:	e004      	b.n	8000136 <bss_init+0x1a>
 800012c:	687b      	ldr	r3, [r7, #4]
 800012e:	1c5a      	adds	r2, r3, #1
 8000130:	607a      	str	r2, [r7, #4]
 8000132:	2200      	movs	r2, #0
 8000134:	701a      	strb	r2, [r3, #0]
 8000136:	68fb      	ldr	r3, [r7, #12]
 8000138:	1c5a      	adds	r2, r3, #1
 800013a:	60fa      	str	r2, [r7, #12]
 800013c:	683a      	ldr	r2, [r7, #0]
 800013e:	4293      	cmp	r3, r2
 8000140:	d1f4      	bne.n	800012c <bss_init+0x10>
 8000142:	46bd      	mov	sp, r7
 8000144:	b004      	add	sp, #16
 8000146:	bd80      	pop	{r7, pc}

08000148 <Reset_Handler>:
 8000148:	b580      	push	{r7, lr}
 800014a:	af00      	add	r7, sp, #0
 800014c:	490c      	ldr	r1, [pc, #48]	; (8000180 <Reset_Handler+0x38>)
 800014e:	4a0d      	ldr	r2, [pc, #52]	; (8000184 <Reset_Handler+0x3c>)
 8000150:	4b0d      	ldr	r3, [pc, #52]	; (8000188 <Reset_Handler+0x40>)
 8000152:	1c08      	adds	r0, r1, #0
 8000154:	1c11      	adds	r1, r2, #0
 8000156:	1c1a      	adds	r2, r3, #0
 8000158:	f7ff ffca 	bl	80000f0 <ro_data_init>
 800015c:	490b      	ldr	r1, [pc, #44]	; (800018c <Reset_Handler+0x44>)
 800015e:	4a0c      	ldr	r2, [pc, #48]	; (8000190 <Reset_Handler+0x48>)
 8000160:	4b0c      	ldr	r3, [pc, #48]	; (8000194 <Reset_Handler+0x4c>)
 8000162:	1c08      	adds	r0, r1, #0
 8000164:	1c11      	adds	r1, r2, #0
 8000166:	1c1a      	adds	r2, r3, #0
 8000168:	f7ff ffc2 	bl	80000f0 <ro_data_init>
 800016c:	4a0a      	ldr	r2, [pc, #40]	; (8000198 <Reset_Handler+0x50>)
 800016e:	4b0b      	ldr	r3, [pc, #44]	; (800019c <Reset_Handler+0x54>)
 8000170:	1c10      	adds	r0, r2, #0
 8000172:	1c19      	adds	r1, r3, #0
 8000174:	f7ff ffd2 	bl	800011c <bss_init>
 8000178:	f000 f8d4 	bl	8000324 <main>
 800017c:	46bd      	mov	sp, r7
 800017e:	bd80      	pop	{r7, pc}
 8000180:	080007b0 	stmdaeq	r0, {r4, r5, r7, r8, r9, sl}
 8000184:	20000000 	andcs	r0, r0, r0
 8000188:	20000000 	andcs	r0, r0, r0
 800018c:	080007b0 	stmdaeq	r0, {r4, r5, r7, r8, r9, sl}
 8000190:	20000000 	andcs	r0, r0, r0
 8000194:	20000008 	andcs	r0, r0, r8
 8000198:	20000008 	andcs	r0, r0, r8
 800019c:	0000024c 	andeq	r0, r0, ip, asr #4

080001a0 <Oscillator_int>:
 80001a0:	b580      	push	{r7, lr}
 80001a2:	af00      	add	r7, sp, #0
 80001a4:	4b07      	ldr	r3, [pc, #28]	; (80001c4 <Oscillator_int+0x24>)
 80001a6:	4a07      	ldr	r2, [pc, #28]	; (80001c4 <Oscillator_int+0x24>)
 80001a8:	6952      	ldr	r2, [r2, #20]
 80001aa:	2180      	movs	r1, #128	; 0x80
 80001ac:	0309      	lsls	r1, r1, #12
 80001ae:	430a      	orrs	r2, r1
 80001b0:	615a      	str	r2, [r3, #20]
 80001b2:	4b05      	ldr	r3, [pc, #20]	; (80001c8 <Oscillator_int+0x28>)
 80001b4:	4a04      	ldr	r2, [pc, #16]	; (80001c8 <Oscillator_int+0x28>)
 80001b6:	6812      	ldr	r2, [r2, #0]
 80001b8:	21aa      	movs	r1, #170	; 0xaa
 80001ba:	02c9      	lsls	r1, r1, #11
 80001bc:	430a      	orrs	r2, r1
 80001be:	601a      	str	r2, [r3, #0]
 80001c0:	46bd      	mov	sp, r7
 80001c2:	bd80      	pop	{r7, pc}
 80001c4:	40021000 	andmi	r1, r2, r0
 80001c8:	48000800 	stmdami	r0, {fp}

080001cc <Init_Hardware>:
 80001cc:	b580      	push	{r7, lr}
 80001ce:	af00      	add	r7, sp, #0
 80001d0:	f7ff ffe6 	bl	80001a0 <Oscillator_int>
 80001d4:	f000 f8ce 	bl	8000374 <Port_Init>
 80001d8:	b662      	cpsie	i
 80001da:	46bd      	mov	sp, r7
 80001dc:	bd80      	pop	{r7, pc}
 80001de:	46c0      	nop			; (mov r8, r8)

080001e0 <PendSV_Start>:
 80001e0:	b580      	push	{r7, lr}
 80001e2:	af00      	add	r7, sp, #0
 80001e4:	4b04      	ldr	r3, [pc, #16]	; (80001f8 <PendSV_Start+0x18>)
 80001e6:	4a04      	ldr	r2, [pc, #16]	; (80001f8 <PendSV_Start+0x18>)
 80001e8:	6852      	ldr	r2, [r2, #4]
 80001ea:	2180      	movs	r1, #128	; 0x80
 80001ec:	0549      	lsls	r1, r1, #21
 80001ee:	430a      	orrs	r2, r1
 80001f0:	605a      	str	r2, [r3, #4]
 80001f2:	46bd      	mov	sp, r7
 80001f4:	bd80      	pop	{r7, pc}
 80001f6:	46c0      	nop			; (mov r8, r8)
 80001f8:	e000ed00 	and	lr, r0, r0, lsl #26

080001fc <Thread_A>:
 80001fc:	b580      	push	{r7, lr}
 80001fe:	b082      	sub	sp, #8
 8000200:	af00      	add	r7, sp, #0
 8000202:	6078      	str	r0, [r7, #4]
 8000204:	4b20      	ldr	r3, [pc, #128]	; (8000288 <Thread_A+0x8c>)
 8000206:	1c18      	adds	r0, r3, #0
 8000208:	f000 fa64 	bl	80006d4 <eMutex_lock>
 800020c:	2380      	movs	r3, #128	; 0x80
 800020e:	025b      	lsls	r3, r3, #9
 8000210:	1c18      	adds	r0, r3, #0
 8000212:	f000 fa51 	bl	80006b8 <Delay>
 8000216:	491d      	ldr	r1, [pc, #116]	; (800028c <Thread_A+0x90>)
 8000218:	4b1c      	ldr	r3, [pc, #112]	; (800028c <Thread_A+0x90>)
 800021a:	8a9b      	ldrh	r3, [r3, #20]
 800021c:	b29b      	uxth	r3, r3
 800021e:	2280      	movs	r2, #128	; 0x80
 8000220:	0052      	lsls	r2, r2, #1
 8000222:	4053      	eors	r3, r2
 8000224:	b29b      	uxth	r3, r3
 8000226:	828b      	strh	r3, [r1, #20]
 8000228:	2380      	movs	r3, #128	; 0x80
 800022a:	025b      	lsls	r3, r3, #9
 800022c:	1c18      	adds	r0, r3, #0
 800022e:	f000 fa43 	bl	80006b8 <Delay>
 8000232:	4916      	ldr	r1, [pc, #88]	; (800028c <Thread_A+0x90>)
 8000234:	4b15      	ldr	r3, [pc, #84]	; (800028c <Thread_A+0x90>)
 8000236:	8a9b      	ldrh	r3, [r3, #20]
 8000238:	b29b      	uxth	r3, r3
 800023a:	2280      	movs	r2, #128	; 0x80
 800023c:	0052      	lsls	r2, r2, #1
 800023e:	4053      	eors	r3, r2
 8000240:	b29b      	uxth	r3, r3
 8000242:	828b      	strh	r3, [r1, #20]
 8000244:	2380      	movs	r3, #128	; 0x80
 8000246:	025b      	lsls	r3, r3, #9
 8000248:	1c18      	adds	r0, r3, #0
 800024a:	f000 fa35 	bl	80006b8 <Delay>
 800024e:	490f      	ldr	r1, [pc, #60]	; (800028c <Thread_A+0x90>)
 8000250:	4b0e      	ldr	r3, [pc, #56]	; (800028c <Thread_A+0x90>)
 8000252:	8a9b      	ldrh	r3, [r3, #20]
 8000254:	b29b      	uxth	r3, r3
 8000256:	2280      	movs	r2, #128	; 0x80
 8000258:	0052      	lsls	r2, r2, #1
 800025a:	4053      	eors	r3, r2
 800025c:	b29b      	uxth	r3, r3
 800025e:	828b      	strh	r3, [r1, #20]
 8000260:	2380      	movs	r3, #128	; 0x80
 8000262:	025b      	lsls	r3, r3, #9
 8000264:	1c18      	adds	r0, r3, #0
 8000266:	f000 fa27 	bl	80006b8 <Delay>
 800026a:	4908      	ldr	r1, [pc, #32]	; (800028c <Thread_A+0x90>)
 800026c:	4b07      	ldr	r3, [pc, #28]	; (800028c <Thread_A+0x90>)
 800026e:	8a9b      	ldrh	r3, [r3, #20]
 8000270:	b29b      	uxth	r3, r3
 8000272:	2280      	movs	r2, #128	; 0x80
 8000274:	0052      	lsls	r2, r2, #1
 8000276:	4053      	eors	r3, r2
 8000278:	b29b      	uxth	r3, r3
 800027a:	828b      	strh	r3, [r1, #20]
 800027c:	4b02      	ldr	r3, [pc, #8]	; (8000288 <Thread_A+0x8c>)
 800027e:	1c18      	adds	r0, r3, #0
 8000280:	f000 fa84 	bl	800078c <eMutex_unlock>
 8000284:	e7be      	b.n	8000204 <Thread_A+0x8>
 8000286:	46c0      	nop			; (mov r8, r8)
 8000288:	20000008 	andcs	r0, r0, r8
 800028c:	48000800 	stmdami	r0, {fp}

08000290 <Thread_B>:
 8000290:	b580      	push	{r7, lr}
 8000292:	b082      	sub	sp, #8
 8000294:	af00      	add	r7, sp, #0
 8000296:	6078      	str	r0, [r7, #4]
 8000298:	4b20      	ldr	r3, [pc, #128]	; (800031c <Thread_B+0x8c>)
 800029a:	1c18      	adds	r0, r3, #0
 800029c:	f000 fa1a 	bl	80006d4 <eMutex_lock>
 80002a0:	2380      	movs	r3, #128	; 0x80
 80002a2:	025b      	lsls	r3, r3, #9
 80002a4:	1c18      	adds	r0, r3, #0
 80002a6:	f000 fa07 	bl	80006b8 <Delay>
 80002aa:	491d      	ldr	r1, [pc, #116]	; (8000320 <Thread_B+0x90>)
 80002ac:	4b1c      	ldr	r3, [pc, #112]	; (8000320 <Thread_B+0x90>)
 80002ae:	8a9b      	ldrh	r3, [r3, #20]
 80002b0:	b29b      	uxth	r3, r3
 80002b2:	2280      	movs	r2, #128	; 0x80
 80002b4:	0092      	lsls	r2, r2, #2
 80002b6:	4053      	eors	r3, r2
 80002b8:	b29b      	uxth	r3, r3
 80002ba:	828b      	strh	r3, [r1, #20]
 80002bc:	2380      	movs	r3, #128	; 0x80
 80002be:	025b      	lsls	r3, r3, #9
 80002c0:	1c18      	adds	r0, r3, #0
 80002c2:	f000 f9f9 	bl	80006b8 <Delay>
 80002c6:	4916      	ldr	r1, [pc, #88]	; (8000320 <Thread_B+0x90>)
 80002c8:	4b15      	ldr	r3, [pc, #84]	; (8000320 <Thread_B+0x90>)
 80002ca:	8a9b      	ldrh	r3, [r3, #20]
 80002cc:	b29b      	uxth	r3, r3
 80002ce:	2280      	movs	r2, #128	; 0x80
 80002d0:	0092      	lsls	r2, r2, #2
 80002d2:	4053      	eors	r3, r2
 80002d4:	b29b      	uxth	r3, r3
 80002d6:	828b      	strh	r3, [r1, #20]
 80002d8:	2380      	movs	r3, #128	; 0x80
 80002da:	025b      	lsls	r3, r3, #9
 80002dc:	1c18      	adds	r0, r3, #0
 80002de:	f000 f9eb 	bl	80006b8 <Delay>
 80002e2:	490f      	ldr	r1, [pc, #60]	; (8000320 <Thread_B+0x90>)
 80002e4:	4b0e      	ldr	r3, [pc, #56]	; (8000320 <Thread_B+0x90>)
 80002e6:	8a9b      	ldrh	r3, [r3, #20]
 80002e8:	b29b      	uxth	r3, r3
 80002ea:	2280      	movs	r2, #128	; 0x80
 80002ec:	0092      	lsls	r2, r2, #2
 80002ee:	4053      	eors	r3, r2
 80002f0:	b29b      	uxth	r3, r3
 80002f2:	828b      	strh	r3, [r1, #20]
 80002f4:	2380      	movs	r3, #128	; 0x80
 80002f6:	025b      	lsls	r3, r3, #9
 80002f8:	1c18      	adds	r0, r3, #0
 80002fa:	f000 f9dd 	bl	80006b8 <Delay>
 80002fe:	4908      	ldr	r1, [pc, #32]	; (8000320 <Thread_B+0x90>)
 8000300:	4b07      	ldr	r3, [pc, #28]	; (8000320 <Thread_B+0x90>)
 8000302:	8a9b      	ldrh	r3, [r3, #20]
 8000304:	b29b      	uxth	r3, r3
 8000306:	2280      	movs	r2, #128	; 0x80
 8000308:	0092      	lsls	r2, r2, #2
 800030a:	4053      	eors	r3, r2
 800030c:	b29b      	uxth	r3, r3
 800030e:	828b      	strh	r3, [r1, #20]
 8000310:	4b02      	ldr	r3, [pc, #8]	; (800031c <Thread_B+0x8c>)
 8000312:	1c18      	adds	r0, r3, #0
 8000314:	f000 fa3a 	bl	800078c <eMutex_unlock>
 8000318:	e7be      	b.n	8000298 <Thread_B+0x8>
 800031a:	46c0      	nop			; (mov r8, r8)
 800031c:	20000008 	andcs	r0, r0, r8
 8000320:	48000800 	stmdami	r0, {fp}

08000324 <main>:
 8000324:	b580      	push	{r7, lr}
 8000326:	b082      	sub	sp, #8
 8000328:	af02      	add	r7, sp, #8
 800032a:	f7ff ff4f 	bl	80001cc <Init_Hardware>
 800032e:	4809      	ldr	r0, [pc, #36]	; (8000354 <main+0x30>)
 8000330:	4909      	ldr	r1, [pc, #36]	; (8000358 <main+0x34>)
 8000332:	4a0a      	ldr	r2, [pc, #40]	; (800035c <main+0x38>)
 8000334:	4b0a      	ldr	r3, [pc, #40]	; (8000360 <main+0x3c>)
 8000336:	9300      	str	r3, [sp, #0]
 8000338:	2340      	movs	r3, #64	; 0x40
 800033a:	f000 f8cf 	bl	80004dc <eTask_Create>
 800033e:	4809      	ldr	r0, [pc, #36]	; (8000364 <main+0x40>)
 8000340:	4909      	ldr	r1, [pc, #36]	; (8000368 <main+0x44>)
 8000342:	4a0a      	ldr	r2, [pc, #40]	; (800036c <main+0x48>)
 8000344:	4b0a      	ldr	r3, [pc, #40]	; (8000370 <main+0x4c>)
 8000346:	9300      	str	r3, [sp, #0]
 8000348:	2340      	movs	r3, #64	; 0x40
 800034a:	f000 f8c7 	bl	80004dc <eTask_Create>
 800034e:	f000 f951 	bl	80005f4 <eStart_Schedule>
 8000352:	e7fe      	b.n	8000352 <main+0x2e>
 8000354:	20000228 	andcs	r0, r0, r8, lsr #4
 8000358:	080001fd 	stmdaeq	r0, {r0, r2, r3, r4, r5, r6, r7, r8}
 800035c:	20000210 	andcs	r0, r0, r0, lsl r2
 8000360:	20000004 	andcs	r0, r0, r4
 8000364:	2000023c 	andcs	r0, r0, ip, lsr r2
 8000368:	08000291 	stmdaeq	r0, {r0, r4, r7, r9}
 800036c:	20000110 	andcs	r0, r0, r0, lsl r1
 8000370:	20000214 	andcs	r0, r0, r4, lsl r2

08000374 <Port_Init>:
 8000374:	b580      	push	{r7, lr}
 8000376:	af00      	add	r7, sp, #0
 8000378:	46bd      	mov	sp, r7
 800037a:	bd80      	pop	{r7, pc}

0800037c <PendSV_Handler>:
 800037c:	490d      	ldr	r1, [pc, #52]	; (80003b4 <PendSV_Handler+0x38>)
 800037e:	6808      	ldr	r0, [r1, #0]
 8000380:	f3ef 8109 	mrs	r1, PSP
 8000384:	3920      	subs	r1, #32
 8000386:	6001      	str	r1, [r0, #0]
 8000388:	c1f0      	stmia	r1!, {r4, r5, r6, r7}
 800038a:	4644      	mov	r4, r8
 800038c:	464d      	mov	r5, r9
 800038e:	4656      	mov	r6, sl
 8000390:	465f      	mov	r7, fp
 8000392:	c1f0      	stmia	r1!, {r4, r5, r6, r7}
 8000394:	4808      	ldr	r0, [pc, #32]	; (80003b8 <PendSV_Handler+0x3c>)
 8000396:	6801      	ldr	r1, [r0, #0]
 8000398:	6808      	ldr	r0, [r1, #0]
 800039a:	3010      	adds	r0, #16
 800039c:	c8f0      	ldmia	r0!, {r4, r5, r6, r7}
 800039e:	46a0      	mov	r8, r4
 80003a0:	46a9      	mov	r9, r5
 80003a2:	46b2      	mov	sl, r6
 80003a4:	46bb      	mov	fp, r7
 80003a6:	f380 8809 	msr	PSP, r0
 80003aa:	3820      	subs	r0, #32
 80003ac:	c8f0      	ldmia	r0!, {r4, r5, r6, r7}
 80003ae:	4803      	ldr	r0, [pc, #12]	; (80003bc <PendSV_Handler+0x40>)
 80003b0:	4700      	bx	r0
 80003b2:	02240000 	eoreq	r0, r4, #0
 80003b6:	02502000 	subseq	r2, r0, #0
 80003ba:	fffd2000 			; <UNDEFINED> instruction: 0xfffd2000
 80003be:	b5b0ffff 	ldrlt	pc, [r0, #4095]!	; 0xfff

080003c0 <NVIC_SetPriority>:
 80003c0:	b5b0      	push	{r4, r5, r7, lr}
 80003c2:	b082      	sub	sp, #8
 80003c4:	af00      	add	r7, sp, #0
 80003c6:	1c02      	adds	r2, r0, #0
 80003c8:	6039      	str	r1, [r7, #0]
 80003ca:	1dfb      	adds	r3, r7, #7
 80003cc:	701a      	strb	r2, [r3, #0]
 80003ce:	1dfb      	adds	r3, r7, #7
 80003d0:	781b      	ldrb	r3, [r3, #0]
 80003d2:	2b7f      	cmp	r3, #127	; 0x7f
 80003d4:	d92f      	bls.n	8000436 <NVIC_SetPriority+0x76>
 80003d6:	4c2d      	ldr	r4, [pc, #180]	; (800048c <NVIC_SetPriority+0xcc>)
 80003d8:	1dfb      	adds	r3, r7, #7
 80003da:	781b      	ldrb	r3, [r3, #0]
 80003dc:	1c1a      	adds	r2, r3, #0
 80003de:	230f      	movs	r3, #15
 80003e0:	4013      	ands	r3, r2
 80003e2:	3b08      	subs	r3, #8
 80003e4:	0899      	lsrs	r1, r3, #2
 80003e6:	4a29      	ldr	r2, [pc, #164]	; (800048c <NVIC_SetPriority+0xcc>)
 80003e8:	1dfb      	adds	r3, r7, #7
 80003ea:	781b      	ldrb	r3, [r3, #0]
 80003ec:	1c18      	adds	r0, r3, #0
 80003ee:	230f      	movs	r3, #15
 80003f0:	4003      	ands	r3, r0
 80003f2:	3b08      	subs	r3, #8
 80003f4:	089b      	lsrs	r3, r3, #2
 80003f6:	3306      	adds	r3, #6
 80003f8:	009b      	lsls	r3, r3, #2
 80003fa:	18d3      	adds	r3, r2, r3
 80003fc:	685b      	ldr	r3, [r3, #4]
 80003fe:	1dfa      	adds	r2, r7, #7
 8000400:	7812      	ldrb	r2, [r2, #0]
 8000402:	1c10      	adds	r0, r2, #0
 8000404:	2203      	movs	r2, #3
 8000406:	4002      	ands	r2, r0
 8000408:	00d2      	lsls	r2, r2, #3
 800040a:	1c10      	adds	r0, r2, #0
 800040c:	22ff      	movs	r2, #255	; 0xff
 800040e:	4082      	lsls	r2, r0
 8000410:	43d2      	mvns	r2, r2
 8000412:	401a      	ands	r2, r3
 8000414:	683b      	ldr	r3, [r7, #0]
 8000416:	019b      	lsls	r3, r3, #6
 8000418:	20ff      	movs	r0, #255	; 0xff
 800041a:	4003      	ands	r3, r0
 800041c:	1df8      	adds	r0, r7, #7
 800041e:	7800      	ldrb	r0, [r0, #0]
 8000420:	1c05      	adds	r5, r0, #0
 8000422:	2003      	movs	r0, #3
 8000424:	4028      	ands	r0, r5
 8000426:	00c0      	lsls	r0, r0, #3
 8000428:	4083      	lsls	r3, r0
 800042a:	431a      	orrs	r2, r3
 800042c:	1d8b      	adds	r3, r1, #6
 800042e:	009b      	lsls	r3, r3, #2
 8000430:	18e3      	adds	r3, r4, r3
 8000432:	605a      	str	r2, [r3, #4]
 8000434:	e026      	b.n	8000484 <NVIC_SetPriority+0xc4>
 8000436:	4c16      	ldr	r4, [pc, #88]	; (8000490 <NVIC_SetPriority+0xd0>)
 8000438:	1dfb      	adds	r3, r7, #7
 800043a:	781b      	ldrb	r3, [r3, #0]
 800043c:	b25b      	sxtb	r3, r3
 800043e:	089b      	lsrs	r3, r3, #2
 8000440:	4913      	ldr	r1, [pc, #76]	; (8000490 <NVIC_SetPriority+0xd0>)
 8000442:	1dfa      	adds	r2, r7, #7
 8000444:	7812      	ldrb	r2, [r2, #0]
 8000446:	b252      	sxtb	r2, r2
 8000448:	0892      	lsrs	r2, r2, #2
 800044a:	32c0      	adds	r2, #192	; 0xc0
 800044c:	0092      	lsls	r2, r2, #2
 800044e:	5852      	ldr	r2, [r2, r1]
 8000450:	1df9      	adds	r1, r7, #7
 8000452:	7809      	ldrb	r1, [r1, #0]
 8000454:	1c08      	adds	r0, r1, #0
 8000456:	2103      	movs	r1, #3
 8000458:	4001      	ands	r1, r0
 800045a:	00c9      	lsls	r1, r1, #3
 800045c:	1c08      	adds	r0, r1, #0
 800045e:	21ff      	movs	r1, #255	; 0xff
 8000460:	4081      	lsls	r1, r0
 8000462:	43c9      	mvns	r1, r1
 8000464:	4011      	ands	r1, r2
 8000466:	683a      	ldr	r2, [r7, #0]
 8000468:	0192      	lsls	r2, r2, #6
 800046a:	20ff      	movs	r0, #255	; 0xff
 800046c:	4002      	ands	r2, r0
 800046e:	1df8      	adds	r0, r7, #7
 8000470:	7800      	ldrb	r0, [r0, #0]
 8000472:	1c05      	adds	r5, r0, #0
 8000474:	2003      	movs	r0, #3
 8000476:	4028      	ands	r0, r5
 8000478:	00c0      	lsls	r0, r0, #3
 800047a:	4082      	lsls	r2, r0
 800047c:	430a      	orrs	r2, r1
 800047e:	33c0      	adds	r3, #192	; 0xc0
 8000480:	009b      	lsls	r3, r3, #2
 8000482:	511a      	str	r2, [r3, r4]
 8000484:	46bd      	mov	sp, r7
 8000486:	b002      	add	sp, #8
 8000488:	bdb0      	pop	{r4, r5, r7, pc}
 800048a:	46c0      	nop			; (mov r8, r8)
 800048c:	e000ed00 	and	lr, r0, r0, lsl #26
 8000490:	e000e100 	and	lr, r0, r0, lsl #2

08000494 <SysTick_Config>:
 8000494:	b580      	push	{r7, lr}
 8000496:	b082      	sub	sp, #8
 8000498:	af00      	add	r7, sp, #0
 800049a:	6078      	str	r0, [r7, #4]
 800049c:	687b      	ldr	r3, [r7, #4]
 800049e:	3b01      	subs	r3, #1
 80004a0:	4a0c      	ldr	r2, [pc, #48]	; (80004d4 <SysTick_Config+0x40>)
 80004a2:	4293      	cmp	r3, r2
 80004a4:	d901      	bls.n	80004aa <SysTick_Config+0x16>
 80004a6:	2301      	movs	r3, #1
 80004a8:	e010      	b.n	80004cc <SysTick_Config+0x38>
 80004aa:	4b0b      	ldr	r3, [pc, #44]	; (80004d8 <SysTick_Config+0x44>)
 80004ac:	687a      	ldr	r2, [r7, #4]
 80004ae:	3a01      	subs	r2, #1
 80004b0:	605a      	str	r2, [r3, #4]
 80004b2:	2301      	movs	r3, #1
 80004b4:	425b      	negs	r3, r3
 80004b6:	1c18      	adds	r0, r3, #0
 80004b8:	2103      	movs	r1, #3
 80004ba:	f7ff ff81 	bl	80003c0 <NVIC_SetPriority>
 80004be:	4b06      	ldr	r3, [pc, #24]	; (80004d8 <SysTick_Config+0x44>)
 80004c0:	2200      	movs	r2, #0
 80004c2:	609a      	str	r2, [r3, #8]
 80004c4:	4b04      	ldr	r3, [pc, #16]	; (80004d8 <SysTick_Config+0x44>)
 80004c6:	2207      	movs	r2, #7
 80004c8:	601a      	str	r2, [r3, #0]
 80004ca:	2300      	movs	r3, #0
 80004cc:	1c18      	adds	r0, r3, #0
 80004ce:	46bd      	mov	sp, r7
 80004d0:	b002      	add	sp, #8
 80004d2:	bd80      	pop	{r7, pc}
 80004d4:	00ffffff 	ldrshteq	pc, [pc], #255	; <UNPREDICTABLE>
 80004d8:	e000e010 	and	lr, r0, r0, lsl r0

080004dc <eTask_Create>:
 80004dc:	b580      	push	{r7, lr}
 80004de:	b084      	sub	sp, #16
 80004e0:	af00      	add	r7, sp, #0
 80004e2:	60f8      	str	r0, [r7, #12]
 80004e4:	60b9      	str	r1, [r7, #8]
 80004e6:	607a      	str	r2, [r7, #4]
 80004e8:	603b      	str	r3, [r7, #0]
 80004ea:	68fb      	ldr	r3, [r7, #12]
 80004ec:	2b00      	cmp	r3, #0
 80004ee:	d109      	bne.n	8000504 <eTask_Create+0x28>
 80004f0:	68bb      	ldr	r3, [r7, #8]
 80004f2:	2b00      	cmp	r3, #0
 80004f4:	d106      	bne.n	8000504 <eTask_Create+0x28>
 80004f6:	687b      	ldr	r3, [r7, #4]
 80004f8:	2b00      	cmp	r3, #0
 80004fa:	d103      	bne.n	8000504 <eTask_Create+0x28>
 80004fc:	683b      	ldr	r3, [r7, #0]
 80004fe:	2b0f      	cmp	r3, #15
 8000500:	d900      	bls.n	8000504 <eTask_Create+0x28>
 8000502:	e01d      	b.n	8000540 <eTask_Create+0x64>
 8000504:	68fb      	ldr	r3, [r7, #12]
 8000506:	683a      	ldr	r2, [r7, #0]
 8000508:	601a      	str	r2, [r3, #0]
 800050a:	68fb      	ldr	r3, [r7, #12]
 800050c:	69ba      	ldr	r2, [r7, #24]
 800050e:	611a      	str	r2, [r3, #16]
 8000510:	68fb      	ldr	r3, [r7, #12]
 8000512:	68ba      	ldr	r2, [r7, #8]
 8000514:	60da      	str	r2, [r3, #12]
 8000516:	687b      	ldr	r3, [r7, #4]
 8000518:	3b1c      	subs	r3, #28
 800051a:	69ba      	ldr	r2, [r7, #24]
 800051c:	601a      	str	r2, [r3, #0]
 800051e:	687b      	ldr	r3, [r7, #4]
 8000520:	3b08      	subs	r3, #8
 8000522:	68ba      	ldr	r2, [r7, #8]
 8000524:	601a      	str	r2, [r3, #0]
 8000526:	687b      	ldr	r3, [r7, #4]
 8000528:	3b04      	subs	r3, #4
 800052a:	68ba      	ldr	r2, [r7, #8]
 800052c:	601a      	str	r2, [r3, #0]
 800052e:	687b      	ldr	r3, [r7, #4]
 8000530:	2280      	movs	r2, #128	; 0x80
 8000532:	0452      	lsls	r2, r2, #17
 8000534:	601a      	str	r2, [r3, #0]
 8000536:	687b      	ldr	r3, [r7, #4]
 8000538:	3b3c      	subs	r3, #60	; 0x3c
 800053a:	1c1a      	adds	r2, r3, #0
 800053c:	68fb      	ldr	r3, [r7, #12]
 800053e:	605a      	str	r2, [r3, #4]
 8000540:	46bd      	mov	sp, r7
 8000542:	b004      	add	sp, #16
 8000544:	bd80      	pop	{r7, pc}
 8000546:	46c0      	nop			; (mov r8, r8)

08000548 <sTask_Switch>:
 8000548:	b580      	push	{r7, lr}
 800054a:	af00      	add	r7, sp, #0
 800054c:	4b05      	ldr	r3, [pc, #20]	; (8000564 <sTask_Switch+0x1c>)
 800054e:	781b      	ldrb	r3, [r3, #0]
 8000550:	2201      	movs	r2, #1
 8000552:	4053      	eors	r3, r2
 8000554:	b2da      	uxtb	r2, r3
 8000556:	4b03      	ldr	r3, [pc, #12]	; (8000564 <sTask_Switch+0x1c>)
 8000558:	701a      	strb	r2, [r3, #0]
 800055a:	4b02      	ldr	r3, [pc, #8]	; (8000564 <sTask_Switch+0x1c>)
 800055c:	781b      	ldrb	r3, [r3, #0]
 800055e:	1c18      	adds	r0, r3, #0
 8000560:	46bd      	mov	sp, r7
 8000562:	bd80      	pop	{r7, pc}
 8000564:	20000010 	andcs	r0, r0, r0, lsl r0

08000568 <sTask_Schedule>:
 8000568:	b580      	push	{r7, lr}
 800056a:	af00      	add	r7, sp, #0
 800056c:	4b1b      	ldr	r3, [pc, #108]	; (80005dc <sTask_Schedule+0x74>)
 800056e:	2200      	movs	r2, #0
 8000570:	609a      	str	r2, [r3, #8]
 8000572:	4b1b      	ldr	r3, [pc, #108]	; (80005e0 <sTask_Schedule+0x78>)
 8000574:	685a      	ldr	r2, [r3, #4]
 8000576:	4b1a      	ldr	r3, [pc, #104]	; (80005e0 <sTask_Schedule+0x78>)
 8000578:	601a      	str	r2, [r3, #0]
 800057a:	f7ff ffe5 	bl	8000548 <sTask_Switch>
 800057e:	1c03      	adds	r3, r0, #0
 8000580:	1c1a      	adds	r2, r3, #0
 8000582:	4b17      	ldr	r3, [pc, #92]	; (80005e0 <sTask_Schedule+0x78>)
 8000584:	605a      	str	r2, [r3, #4]
 8000586:	4b16      	ldr	r3, [pc, #88]	; (80005e0 <sTask_Schedule+0x78>)
 8000588:	681a      	ldr	r2, [r3, #0]
 800058a:	1c13      	adds	r3, r2, #0
 800058c:	009b      	lsls	r3, r3, #2
 800058e:	189b      	adds	r3, r3, r2
 8000590:	009b      	lsls	r3, r3, #2
 8000592:	4a14      	ldr	r2, [pc, #80]	; (80005e4 <sTask_Schedule+0x7c>)
 8000594:	189b      	adds	r3, r3, r2
 8000596:	1d1a      	adds	r2, r3, #4
 8000598:	4b13      	ldr	r3, [pc, #76]	; (80005e8 <sTask_Schedule+0x80>)
 800059a:	601a      	str	r2, [r3, #0]
 800059c:	4b10      	ldr	r3, [pc, #64]	; (80005e0 <sTask_Schedule+0x78>)
 800059e:	685a      	ldr	r2, [r3, #4]
 80005a0:	1c13      	adds	r3, r2, #0
 80005a2:	009b      	lsls	r3, r3, #2
 80005a4:	189b      	adds	r3, r3, r2
 80005a6:	009b      	lsls	r3, r3, #2
 80005a8:	4a0e      	ldr	r2, [pc, #56]	; (80005e4 <sTask_Schedule+0x7c>)
 80005aa:	189b      	adds	r3, r3, r2
 80005ac:	1d1a      	adds	r2, r3, #4
 80005ae:	4b0f      	ldr	r3, [pc, #60]	; (80005ec <sTask_Schedule+0x84>)
 80005b0:	601a      	str	r2, [r3, #0]
 80005b2:	4b0b      	ldr	r3, [pc, #44]	; (80005e0 <sTask_Schedule+0x78>)
 80005b4:	685a      	ldr	r2, [r3, #4]
 80005b6:	490b      	ldr	r1, [pc, #44]	; (80005e4 <sTask_Schedule+0x7c>)
 80005b8:	1c13      	adds	r3, r2, #0
 80005ba:	009b      	lsls	r3, r3, #2
 80005bc:	189b      	adds	r3, r3, r2
 80005be:	009b      	lsls	r3, r3, #2
 80005c0:	18cb      	adds	r3, r1, r3
 80005c2:	3308      	adds	r3, #8
 80005c4:	685a      	ldr	r2, [r3, #4]
 80005c6:	4b06      	ldr	r3, [pc, #24]	; (80005e0 <sTask_Schedule+0x78>)
 80005c8:	609a      	str	r2, [r3, #8]
 80005ca:	4b09      	ldr	r3, [pc, #36]	; (80005f0 <sTask_Schedule+0x88>)
 80005cc:	4a08      	ldr	r2, [pc, #32]	; (80005f0 <sTask_Schedule+0x88>)
 80005ce:	6852      	ldr	r2, [r2, #4]
 80005d0:	2180      	movs	r1, #128	; 0x80
 80005d2:	0549      	lsls	r1, r1, #21
 80005d4:	430a      	orrs	r2, r1
 80005d6:	605a      	str	r2, [r3, #4]
 80005d8:	46bd      	mov	sp, r7
 80005da:	bd80      	pop	{r7, pc}
 80005dc:	e000e010 	and	lr, r0, r0, lsl r0
 80005e0:	20000218 	andcs	r0, r0, r8, lsl r2
 80005e4:	20000228 	andcs	r0, r0, r8, lsr #4
 80005e8:	20000224 	andcs	r0, r0, r4, lsr #4
 80005ec:	20000250 	andcs	r0, r0, r0, asr r2
 80005f0:	e000ed00 	and	lr, r0, r0, lsl #26

080005f4 <eStart_Schedule>:
 80005f4:	b580      	push	{r7, lr}
 80005f6:	b082      	sub	sp, #8
 80005f8:	af00      	add	r7, sp, #0
 80005fa:	4b28      	ldr	r3, [pc, #160]	; (800069c <eStart_Schedule+0xa8>)
 80005fc:	2200      	movs	r2, #0
 80005fe:	601a      	str	r2, [r3, #0]
 8000600:	4b26      	ldr	r3, [pc, #152]	; (800069c <eStart_Schedule+0xa8>)
 8000602:	2200      	movs	r2, #0
 8000604:	605a      	str	r2, [r3, #4]
 8000606:	f7ff ff9f 	bl	8000548 <sTask_Switch>
 800060a:	4b24      	ldr	r3, [pc, #144]	; (800069c <eStart_Schedule+0xa8>)
 800060c:	685a      	ldr	r2, [r3, #4]
 800060e:	4b23      	ldr	r3, [pc, #140]	; (800069c <eStart_Schedule+0xa8>)
 8000610:	601a      	str	r2, [r3, #0]
 8000612:	4b22      	ldr	r3, [pc, #136]	; (800069c <eStart_Schedule+0xa8>)
 8000614:	681a      	ldr	r2, [r3, #0]
 8000616:	1c13      	adds	r3, r2, #0
 8000618:	009b      	lsls	r3, r3, #2
 800061a:	189b      	adds	r3, r3, r2
 800061c:	009b      	lsls	r3, r3, #2
 800061e:	4a20      	ldr	r2, [pc, #128]	; (80006a0 <eStart_Schedule+0xac>)
 8000620:	189b      	adds	r3, r3, r2
 8000622:	1d1a      	adds	r2, r3, #4
 8000624:	4b1f      	ldr	r3, [pc, #124]	; (80006a4 <eStart_Schedule+0xb0>)
 8000626:	601a      	str	r2, [r3, #0]
 8000628:	4b1c      	ldr	r3, [pc, #112]	; (800069c <eStart_Schedule+0xa8>)
 800062a:	685a      	ldr	r2, [r3, #4]
 800062c:	1c13      	adds	r3, r2, #0
 800062e:	009b      	lsls	r3, r3, #2
 8000630:	189b      	adds	r3, r3, r2
 8000632:	009b      	lsls	r3, r3, #2
 8000634:	4a1a      	ldr	r2, [pc, #104]	; (80006a0 <eStart_Schedule+0xac>)
 8000636:	189b      	adds	r3, r3, r2
 8000638:	1d1a      	adds	r2, r3, #4
 800063a:	4b1b      	ldr	r3, [pc, #108]	; (80006a8 <eStart_Schedule+0xb4>)
 800063c:	601a      	str	r2, [r3, #0]
 800063e:	4b17      	ldr	r3, [pc, #92]	; (800069c <eStart_Schedule+0xa8>)
 8000640:	681a      	ldr	r2, [r3, #0]
 8000642:	4917      	ldr	r1, [pc, #92]	; (80006a0 <eStart_Schedule+0xac>)
 8000644:	1c13      	adds	r3, r2, #0
 8000646:	009b      	lsls	r3, r3, #2
 8000648:	189b      	adds	r3, r3, r2
 800064a:	009b      	lsls	r3, r3, #2
 800064c:	18cb      	adds	r3, r1, r3
 800064e:	685b      	ldr	r3, [r3, #4]
 8000650:	3320      	adds	r3, #32
 8000652:	607b      	str	r3, [r7, #4]
 8000654:	687b      	ldr	r3, [r7, #4]
 8000656:	f383 8809 	msr	PSP, r3
 800065a:	4b10      	ldr	r3, [pc, #64]	; (800069c <eStart_Schedule+0xa8>)
 800065c:	685a      	ldr	r2, [r3, #4]
 800065e:	4910      	ldr	r1, [pc, #64]	; (80006a0 <eStart_Schedule+0xac>)
 8000660:	1c13      	adds	r3, r2, #0
 8000662:	009b      	lsls	r3, r3, #2
 8000664:	189b      	adds	r3, r3, r2
 8000666:	009b      	lsls	r3, r3, #2
 8000668:	18cb      	adds	r3, r1, r3
 800066a:	3308      	adds	r3, #8
 800066c:	685a      	ldr	r2, [r3, #4]
 800066e:	4b0b      	ldr	r3, [pc, #44]	; (800069c <eStart_Schedule+0xa8>)
 8000670:	609a      	str	r2, [r3, #8]
 8000672:	23fa      	movs	r3, #250	; 0xfa
 8000674:	015b      	lsls	r3, r3, #5
 8000676:	1c18      	adds	r0, r3, #0
 8000678:	f7ff ff0c 	bl	8000494 <SysTick_Config>
 800067c:	2302      	movs	r3, #2
 800067e:	425b      	negs	r3, r3
 8000680:	1c18      	adds	r0, r3, #0
 8000682:	21ff      	movs	r1, #255	; 0xff
 8000684:	f7ff fe9c 	bl	80003c0 <NVIC_SetPriority>
 8000688:	2301      	movs	r3, #1
 800068a:	425b      	negs	r3, r3
 800068c:	1c18      	adds	r0, r3, #0
 800068e:	21ff      	movs	r1, #255	; 0xff
 8000690:	f7ff fe96 	bl	80003c0 <NVIC_SetPriority>
 8000694:	46bd      	mov	sp, r7
 8000696:	b002      	add	sp, #8
 8000698:	bd80      	pop	{r7, pc}
 800069a:	46c0      	nop			; (mov r8, r8)
 800069c:	20000218 	andcs	r0, r0, r8, lsl r2
 80006a0:	20000228 	andcs	r0, r0, r8, lsr #4
 80006a4:	20000224 	andcs	r0, r0, r4, lsr #4
 80006a8:	20000250 	andcs	r0, r0, r0, asr r2

080006ac <SysTick_Handler>:
 80006ac:	b580      	push	{r7, lr}
 80006ae:	af00      	add	r7, sp, #0
 80006b0:	f7ff ff5a 	bl	8000568 <sTask_Schedule>
 80006b4:	46bd      	mov	sp, r7
 80006b6:	bd80      	pop	{r7, pc}

080006b8 <Delay>:
 80006b8:	b580      	push	{r7, lr}
 80006ba:	b082      	sub	sp, #8
 80006bc:	af00      	add	r7, sp, #0
 80006be:	6078      	str	r0, [r7, #4]
 80006c0:	46c0      	nop			; (mov r8, r8)
 80006c2:	687b      	ldr	r3, [r7, #4]
 80006c4:	1e5a      	subs	r2, r3, #1
 80006c6:	607a      	str	r2, [r7, #4]
 80006c8:	2b00      	cmp	r3, #0
 80006ca:	d1fa      	bne.n	80006c2 <Delay+0xa>
 80006cc:	46bd      	mov	sp, r7
 80006ce:	b002      	add	sp, #8
 80006d0:	bd80      	pop	{r7, pc}
 80006d2:	46c0      	nop			; (mov r8, r8)

080006d4 <eMutex_lock>:
 80006d4:	b580      	push	{r7, lr}
 80006d6:	b082      	sub	sp, #8
 80006d8:	af00      	add	r7, sp, #0
 80006da:	6078      	str	r0, [r7, #4]
 80006dc:	b672      	cpsid	i
 80006de:	687b      	ldr	r3, [r7, #4]
 80006e0:	681b      	ldr	r3, [r3, #0]
 80006e2:	2b00      	cmp	r3, #0
 80006e4:	d110      	bne.n	8000708 <eMutex_lock+0x34>
 80006e6:	687b      	ldr	r3, [r7, #4]
 80006e8:	791b      	ldrb	r3, [r3, #4]
 80006ea:	2b00      	cmp	r3, #0
 80006ec:	d105      	bne.n	80006fa <eMutex_lock+0x26>
 80006ee:	4b0f      	ldr	r3, [pc, #60]	; (800072c <eMutex_lock+0x58>)
 80006f0:	689a      	ldr	r2, [r3, #8]
 80006f2:	687b      	ldr	r3, [r7, #4]
 80006f4:	601a      	str	r2, [r3, #0]
 80006f6:	b662      	cpsie	i
 80006f8:	e015      	b.n	8000726 <eMutex_lock+0x52>
 80006fa:	687b      	ldr	r3, [r7, #4]
 80006fc:	2200      	movs	r2, #0
 80006fe:	711a      	strb	r2, [r3, #4]
 8000700:	b662      	cpsie	i
 8000702:	f7ff ff31 	bl	8000568 <sTask_Schedule>
 8000706:	e00d      	b.n	8000724 <eMutex_lock+0x50>
 8000708:	687b      	ldr	r3, [r7, #4]
 800070a:	681a      	ldr	r2, [r3, #0]
 800070c:	4b07      	ldr	r3, [pc, #28]	; (800072c <eMutex_lock+0x58>)
 800070e:	689b      	ldr	r3, [r3, #8]
 8000710:	429a      	cmp	r2, r3
 8000712:	d101      	bne.n	8000718 <eMutex_lock+0x44>
 8000714:	b662      	cpsie	i
 8000716:	e006      	b.n	8000726 <eMutex_lock+0x52>
 8000718:	687b      	ldr	r3, [r7, #4]
 800071a:	2201      	movs	r2, #1
 800071c:	711a      	strb	r2, [r3, #4]
 800071e:	b662      	cpsie	i
 8000720:	f7ff ff22 	bl	8000568 <sTask_Schedule>
 8000724:	e7da      	b.n	80006dc <eMutex_lock+0x8>
 8000726:	46bd      	mov	sp, r7
 8000728:	b002      	add	sp, #8
 800072a:	bd80      	pop	{r7, pc}
 800072c:	20000218 	andcs	r0, r0, r8, lsl r2

08000730 <eMutex_try_lock>:
 8000730:	b580      	push	{r7, lr}
 8000732:	b082      	sub	sp, #8
 8000734:	af00      	add	r7, sp, #0
 8000736:	6078      	str	r0, [r7, #4]
 8000738:	b672      	cpsid	i
 800073a:	687b      	ldr	r3, [r7, #4]
 800073c:	681b      	ldr	r3, [r3, #0]
 800073e:	2b00      	cmp	r3, #0
 8000740:	d112      	bne.n	8000768 <eMutex_try_lock+0x38>
 8000742:	687b      	ldr	r3, [r7, #4]
 8000744:	791b      	ldrb	r3, [r3, #4]
 8000746:	2b00      	cmp	r3, #0
 8000748:	d106      	bne.n	8000758 <eMutex_try_lock+0x28>
 800074a:	4b0f      	ldr	r3, [pc, #60]	; (8000788 <eMutex_try_lock+0x58>)
 800074c:	689a      	ldr	r2, [r3, #8]
 800074e:	687b      	ldr	r3, [r7, #4]
 8000750:	601a      	str	r2, [r3, #0]
 8000752:	b662      	cpsie	i
 8000754:	2300      	movs	r3, #0
 8000756:	e012      	b.n	800077e <eMutex_try_lock+0x4e>
 8000758:	687b      	ldr	r3, [r7, #4]
 800075a:	2200      	movs	r2, #0
 800075c:	711a      	strb	r2, [r3, #4]
 800075e:	b662      	cpsie	i
 8000760:	f7ff ff02 	bl	8000568 <sTask_Schedule>
 8000764:	23ff      	movs	r3, #255	; 0xff
 8000766:	e00a      	b.n	800077e <eMutex_try_lock+0x4e>
 8000768:	687b      	ldr	r3, [r7, #4]
 800076a:	681a      	ldr	r2, [r3, #0]
 800076c:	4b06      	ldr	r3, [pc, #24]	; (8000788 <eMutex_try_lock+0x58>)
 800076e:	689b      	ldr	r3, [r3, #8]
 8000770:	429a      	cmp	r2, r3
 8000772:	d102      	bne.n	800077a <eMutex_try_lock+0x4a>
 8000774:	b662      	cpsie	i
 8000776:	2300      	movs	r3, #0
 8000778:	e001      	b.n	800077e <eMutex_try_lock+0x4e>
 800077a:	b662      	cpsie	i
 800077c:	23ff      	movs	r3, #255	; 0xff
 800077e:	1c18      	adds	r0, r3, #0
 8000780:	46bd      	mov	sp, r7
 8000782:	b002      	add	sp, #8
 8000784:	bd80      	pop	{r7, pc}
 8000786:	46c0      	nop			; (mov r8, r8)
 8000788:	20000218 	andcs	r0, r0, r8, lsl r2

0800078c <eMutex_unlock>:
 800078c:	b580      	push	{r7, lr}
 800078e:	b082      	sub	sp, #8
 8000790:	af00      	add	r7, sp, #0
 8000792:	6078      	str	r0, [r7, #4]
 8000794:	687b      	ldr	r3, [r7, #4]
 8000796:	681a      	ldr	r2, [r3, #0]
 8000798:	4b04      	ldr	r3, [pc, #16]	; (80007ac <eMutex_unlock+0x20>)
 800079a:	689b      	ldr	r3, [r3, #8]
 800079c:	429a      	cmp	r2, r3
 800079e:	d102      	bne.n	80007a6 <eMutex_unlock+0x1a>
 80007a0:	687b      	ldr	r3, [r7, #4]
 80007a2:	2200      	movs	r2, #0
 80007a4:	601a      	str	r2, [r3, #0]
 80007a6:	46bd      	mov	sp, r7
 80007a8:	b002      	add	sp, #8
 80007aa:	bd80      	pop	{r7, pc}
 80007ac:	20000218 	andcs	r0, r0, r8, lsl r2
